target datalayout = "e-m:e-p270:32:32-p271:32:32-p272:64:64-i64:64-i128:128-f80:128-n8:16:32:64-S128"
target triple = "x86_64-pc-linux-gnu"

%struct.VP8EncProba = type { [3 x i8], i8, [4 x [8 x [3 x [11 x i8]]]], [4 x [8 x [3 x [11 x i32]]]], [4 x [8 x [3 x [68 x i16]]]], [4 x [16 x [3 x ptr]]], i32, i32, i32 }
%struct.VP8Residual = type { i32, i32, ptr, i32, ptr, ptr, ptr }
%struct.VP8Encoder = type { ptr, ptr, %struct.VP8EncFilterHeader, %struct.VP8EncSegmentHeader, i32, i32, i32, i32, i32, %struct.VP8BitWriter, [8 x %struct.VP8BitWriter], %struct.VP8TBuffer, i32, i32, ptr, i32, %struct.WebPWorker, [4 x %struct.VP8SegmentInfo], i32, i32, i32, i32, i32, i32, i32, i32, %struct.VP8EncProba, [4 x i64], i64, i32, [3 x [4 x i32]], [3 x i32], i32, i32, i32, i32, i32, i32, i32, ptr, ptr, ptr, ptr, ptr, ptr, ptr }
%struct.VP8EncFilterHeader = type { i32, i32, i32, i32 }
%struct.VP8EncSegmentHeader = type { i32, i32, i32 }
%struct.VP8BitWriter = type { i32, i32, i32, i32, ptr, i64, i64, i32 }
%struct.VP8TBuffer = type { ptr, ptr, ptr, i32, i32, i32 }
%struct.WebPWorker = type { ptr, i32, ptr, ptr, ptr, i32 }
%struct.VP8SegmentInfo = type { %struct.VP8Matrix, %struct.VP8Matrix, %struct.VP8Matrix, i32, i32, i32, i32, i32, i32, i32, i32, i32, i32, i32, i32, i32, i32, i32, i64 }
%struct.VP8Matrix = type { [16 x i16], [16 x i16], [16 x i32], [16 x i32], [16 x i16] }
%struct.VP8EncIterator = type { i32, i32, ptr, ptr, ptr, ptr, ptr, ptr, ptr, ptr, ptr, [37 x i8], ptr, i32, [9 x i32], [9 x i32], [4 x [3 x i64]], i64, i64, ptr, i32, i32, i32, i32, [2 x [2 x i8]], ptr, ptr, ptr, ptr, ptr, ptr, [88 x i8], [3359 x i8] }
%struct.VP8ModeScore = type { i64, i64, i64, i64, i64, [16 x i16], [16 x [16 x i16]], [8 x [16 x i16]], i32, [16 x i8], i32, i32, [2 x [3 x i8]] }

@VP8SetResidualCoeffs = external global ptr, align 8
@VP8GetResidualCost = external global ptr, align 8

; Function Attrs: nounwind uwtable
define hidden void @VP8InitResidual(i32 noundef %0, i32 noundef %1, ptr noundef %2, ptr noundef %3) #0 {
  %5 = alloca i32, align 4
  %6 = alloca i32, align 4
  %7 = alloca ptr, align 8
  %8 = alloca ptr, align 8
  store i32 %0, ptr %5, align 4
  store i32 %1, ptr %6, align 4
  store ptr %2, ptr %7, align 8
  store ptr %3, ptr %8, align 8
  %9 = load i32, ptr %6, align 4
  %10 = load ptr, ptr %8, align 8
  %11 = getelementptr inbounds %struct.VP8Residual, ptr %10, i32 0, i32 3
  store i32 %9, ptr %11, align 8
  %12 = load ptr, ptr %7, align 8
  %13 = getelementptr inbounds %struct.VP8Encoder, ptr %12, i32 0, i32 26
  %14 = getelementptr inbounds %struct.VP8EncProba, ptr %13, i32 0, i32 2
  %15 = load i32, ptr %6, align 4
  %16 = sext i32 %15 to i64
  %17 = getelementptr inbounds [4 x [8 x [3 x [11 x i8]]]], ptr %14, i64 0, i64 %16
  %18 = getelementptr inbounds [8 x [3 x [11 x i8]]], ptr %17, i64 0, i64 0
  %19 = load ptr, ptr %8, align 8
  %20 = getelementptr inbounds %struct.VP8Residual, ptr %19, i32 0, i32 4
  store ptr %18, ptr %20, align 8
  %21 = load ptr, ptr %7, align 8
  %22 = getelementptr inbounds %struct.VP8Encoder, ptr %21, i32 0, i32 26
  %23 = getelementptr inbounds %struct.VP8EncProba, ptr %22, i32 0, i32 3
  %24 = load i32, ptr %6, align 4
  %25 = sext i32 %24 to i64
  %26 = getelementptr inbounds [4 x [8 x [3 x [11 x i32]]]], ptr %23, i64 0, i64 %25
  %27 = getelementptr inbounds [8 x [3 x [11 x i32]]], ptr %26, i64 0, i64 0
  %28 = load ptr, ptr %8, align 8
  %29 = getelementptr inbounds %struct.VP8Residual, ptr %28, i32 0, i32 5
  store ptr %27, ptr %29, align 8
  %30 = load ptr, ptr %7, align 8
  %31 = getelementptr inbounds %struct.VP8Encoder, ptr %30, i32 0, i32 26
  %32 = getelementptr inbounds %struct.VP8EncProba, ptr %31, i32 0, i32 5
  %33 = load i32, ptr %6, align 4
  %34 = sext i32 %33 to i64
  %35 = getelementptr inbounds [4 x [16 x [3 x ptr]]], ptr %32, i64 0, i64 %34
  %36 = getelementptr inbounds [16 x [3 x ptr]], ptr %35, i64 0, i64 0
  %37 = load ptr, ptr %8, align 8
  %38 = getelementptr inbounds %struct.VP8Residual, ptr %37, i32 0, i32 6
  store ptr %36, ptr %38, align 8
  %39 = load i32, ptr %5, align 4
  %40 = load ptr, ptr %8, align 8
  %41 = getelementptr inbounds %struct.VP8Residual, ptr %40, i32 0, i32 0
  store i32 %39, ptr %41, align 8
  ret void
}

; Function Attrs: nounwind uwtable
define hidden i32 @VP8GetCostLuma16(ptr noundef %0, ptr noundef %1) #0 {
  %3 = alloca ptr, align 8
  %4 = alloca ptr, align 8
  %5 = alloca %struct.VP8Residual, align 8
  %6 = alloca ptr, align 8
  %7 = alloca i32, align 4
  %8 = alloca i32, align 4
  %9 = alloca i32, align 4
  %10 = alloca i32, align 4
  store ptr %0, ptr %3, align 8
  store ptr %1, ptr %4, align 8
  %11 = load ptr, ptr %3, align 8
  %12 = getelementptr inbounds %struct.VP8EncIterator, ptr %11, i32 0, i32 6
  %13 = load ptr, ptr %12, align 8
  store ptr %13, ptr %6, align 8
  store i32 0, ptr %9, align 4
  %14 = load ptr, ptr %3, align 8
  call void @VP8IteratorNzToBytes(ptr noundef %14)
  %15 = load ptr, ptr %6, align 8
  call void @VP8InitResidual(i32 noundef 0, i32 noundef 1, ptr noundef %15, ptr noundef %5)
  %16 = load ptr, ptr @VP8SetResidualCoeffs, align 8
  %17 = load ptr, ptr %4, align 8
  %18 = getelementptr inbounds %struct.VP8ModeScore, ptr %17, i32 0, i32 5
  %19 = getelementptr inbounds [16 x i16], ptr %18, i64 0, i64 0
  call void %16(ptr noundef %19, ptr noundef %5)
  %20 = load ptr, ptr @VP8GetResidualCost, align 8
  %21 = load ptr, ptr %3, align 8
  %22 = getelementptr inbounds %struct.VP8EncIterator, ptr %21, i32 0, i32 14
  %23 = getelementptr inbounds [9 x i32], ptr %22, i64 0, i64 8
  %24 = load i32, ptr %23, align 4
  %25 = load ptr, ptr %3, align 8
  %26 = getelementptr inbounds %struct.VP8EncIterator, ptr %25, i32 0, i32 15
  %27 = getelementptr inbounds [9 x i32], ptr %26, i64 0, i64 8
  %28 = load i32, ptr %27, align 8
  %29 = add nsw i32 %24, %28
  %30 = call i32 %20(i32 noundef %29, ptr noundef %5)
  %31 = load i32, ptr %9, align 4
  %32 = add nsw i32 %31, %30
  store i32 %32, ptr %9, align 4
  %33 = load ptr, ptr %6, align 8
  call void @VP8InitResidual(i32 noundef 1, i32 noundef 0, ptr noundef %33, ptr noundef %5)
  store i32 0, ptr %8, align 4
  br label %34

34:                                               ; preds = %88, %2
  %35 = load i32, ptr %8, align 4
  %36 = icmp slt i32 %35, 4
  br i1 %36, label %37, label %91

37:                                               ; preds = %34
  store i32 0, ptr %7, align 4
  br label %38

38:                                               ; preds = %84, %37
  %39 = load i32, ptr %7, align 4
  %40 = icmp slt i32 %39, 4
  br i1 %40, label %41, label %87

41:                                               ; preds = %38
  %42 = load ptr, ptr %3, align 8
  %43 = getelementptr inbounds %struct.VP8EncIterator, ptr %42, i32 0, i32 14
  %44 = load i32, ptr %7, align 4
  %45 = sext i32 %44 to i64
  %46 = getelementptr inbounds [9 x i32], ptr %43, i64 0, i64 %45
  %47 = load i32, ptr %46, align 4
  %48 = load ptr, ptr %3, align 8
  %49 = getelementptr inbounds %struct.VP8EncIterator, ptr %48, i32 0, i32 15
  %50 = load i32, ptr %8, align 4
  %51 = sext i32 %50 to i64
  %52 = getelementptr inbounds [9 x i32], ptr %49, i64 0, i64 %51
  %53 = load i32, ptr %52, align 4
  %54 = add nsw i32 %47, %53
  store i32 %54, ptr %10, align 4
  %55 = load ptr, ptr @VP8SetResidualCoeffs, align 8
  %56 = load ptr, ptr %4, align 8
  %57 = getelementptr inbounds %struct.VP8ModeScore, ptr %56, i32 0, i32 6
  %58 = load i32, ptr %7, align 4
  %59 = load i32, ptr %8, align 4
  %60 = mul nsw i32 %59, 4
  %61 = add nsw i32 %58, %60
  %62 = sext i32 %61 to i64
  %63 = getelementptr inbounds [16 x [16 x i16]], ptr %57, i64 0, i64 %62
  %64 = getelementptr inbounds [16 x i16], ptr %63, i64 0, i64 0
  call void %55(ptr noundef %64, ptr noundef %5)
  %65 = load ptr, ptr @VP8GetResidualCost, align 8
  %66 = load i32, ptr %10, align 4
  %67 = call i32 %65(i32 noundef %66, ptr noundef %5)
  %68 = load i32, ptr %9, align 4
  %69 = add nsw i32 %68, %67
  store i32 %69, ptr %9, align 4
  %70 = getelementptr inbounds %struct.VP8Residual, ptr %5, i32 0, i32 1
  %71 = load i32, ptr %70, align 4
  %72 = icmp sge i32 %71, 0
  %73 = zext i1 %72 to i32
  %74 = load ptr, ptr %3, align 8
  %75 = getelementptr inbounds %struct.VP8EncIterator, ptr %74, i32 0, i32 15
  %76 = load i32, ptr %8, align 4
  %77 = sext i32 %76 to i64
  %78 = getelementptr inbounds [9 x i32], ptr %75, i64 0, i64 %77
  store i32 %73, ptr %78, align 4
  %79 = load ptr, ptr %3, align 8
  %80 = getelementptr inbounds %struct.VP8EncIterator, ptr %79, i32 0, i32 14
  %81 = load i32, ptr %7, align 4
  %82 = sext i32 %81 to i64
  %83 = getelementptr inbounds [9 x i32], ptr %80, i64 0, i64 %82
  store i32 %73, ptr %83, align 4
  br label %84

84:                                               ; preds = %41
  %85 = load i32, ptr %7, align 4
  %86 = add nsw i32 %85, 1
  store i32 %86, ptr %7, align 4
  br label %38, !llvm.loop !12

87:                                               ; preds = %38
  br label %88

88:                                               ; preds = %87
  %89 = load i32, ptr %8, align 4
  %90 = add nsw i32 %89, 1
  store i32 %90, ptr %8, align 4
  br label %34, !llvm.loop !13

91:                                               ; preds = %34
  %92 = load i32, ptr %9, align 4
  ret i32 %92
}