; Function Attrs: nounwind uwtable
define hidden i32 @VP8GetCostLuma16(ptr noundef %0, ptr noundef %1) local_unnamed_addr #2 {
  %3 = alloca %struct.VP8Residual, align 8
  %4 = getelementptr inbounds i8, ptr %0, i64 40
  %5 = load ptr, ptr %4, align 8
  tail call void @VP8IteratorNzToBytes(ptr noundef %0) #7
  %6 = getelementptr inbounds i8, ptr %3, i64 16
  store i32 1, ptr %6, align 8
  %7 = getelementptr inbounds i8, ptr %5, i64 3620
  %8 = getelementptr inbounds i8, ptr %5, i64 3884
  %9 = getelementptr inbounds i8, ptr %3, i64 24
  store ptr %8, ptr %9, align 8
  %10 = getelementptr inbounds i8, ptr %5, i64 4676
  %11 = getelementptr inbounds i8, ptr %5, i64 5732
  %12 = getelementptr inbounds i8, ptr %3, i64 32
  store ptr %11, ptr %12, align 8
  %13 = getelementptr inbounds i8, ptr %5, i64 21960
  %14 = getelementptr inbounds i8, ptr %5, i64 22344
  %15 = getelementptr inbounds i8, ptr %3, i64 40
  store ptr %14, ptr %15, align 8
  store i32 0, ptr %3, align 8
  %16 = load ptr, ptr @VP8SetResidualCoeffs, align 8
  %17 = getelementptr inbounds i8, ptr %1, i64 40
  call void %16(ptr noundef nonnull %17, ptr noundef nonnull %3) #7
  %18 = load ptr, ptr @VP8GetResidualCost, align 8
  %19 = getelementptr inbounds i8, ptr %0, i64 132
  %20 = getelementptr inbounds i8, ptr %0, i64 164
  %21 = load i32, ptr %20, align 4
  %22 = getelementptr inbounds i8, ptr %0, i64 168
  %23 = getelementptr inbounds i8, ptr %0, i64 200
  %24 = load i32, ptr %23, align 8
  %25 = add nsw i32 %24, %21
  %26 = call i32 %18(i32 noundef %25, ptr noundef nonnull %3) #7
  store i32 0, ptr %6, align 8
  store ptr %7, ptr %9, align 8
  store ptr %10, ptr %12, align 8
  store ptr %13, ptr %15, align 8
  store i32 1, ptr %3, align 8
  %27 = getelementptr inbounds i8, ptr %1, i64 72
  %28 = getelementptr inbounds i8, ptr %3, i64 4
  br label %.preheader

.preheader:                                       ; preds = %2, %45
  %indvars.iv32 = phi i64 [ 0, %2 ], [ %indvars.iv.next33, %45 ]
  %.02530 = phi i32 [ %26, %2 ], [ %41, %45 ]
  %29 = getelementptr inbounds [9 x i32], ptr %22, i64 0, i64 %indvars.iv32
  %30 = shl nuw nsw i64 %indvars.iv32, 2
  br label %31

31:                                               ; preds = %.preheader, %31
  %indvars.iv = phi i64 [ 0, %.preheader ], [ %indvars.iv.next, %31 ]
  %.127 = phi i32 [ %.02530, %.preheader ], [ %41, %31 ]
  %32 = getelementptr inbounds [9 x i32], ptr %19, i64 0, i64 %indvars.iv
  %33 = load i32, ptr %32, align 4
  %34 = load i32, ptr %29, align 4
  %35 = add nsw i32 %34, %33
  %36 = load ptr, ptr @VP8SetResidualCoeffs, align 8
  %37 = add nuw nsw i64 %indvars.iv, %30
  %38 = getelementptr inbounds [16 x [16 x i16]], ptr %27, i64 0, i64 %37
  call void %36(ptr noundef nonnull %38, ptr noundef nonnull %3) #7
  %39 = load ptr, ptr @VP8GetResidualCost, align 8
  %40 = call i32 %39(i32 noundef %35, ptr noundef nonnull %3) #7
  %41 = add nsw i32 %40, %.127
  %42 = load i32, ptr %28, align 4
  %43 = icmp sgt i32 %42, -1
  %44 = zext i1 %43 to i32
  store i32 %44, ptr %29, align 4
  store i32 %44, ptr %32, align 4
  %indvars.iv.next = add nuw nsw i64 %indvars.iv, 1
  %exitcond.not = icmp eq i64 %indvars.iv.next, 4
  br i1 %exitcond.not, label %45, label %31, !llvm.loop !12

45:                                               ; preds = %31
  %indvars.iv.next33 = add nuw nsw i64 %indvars.iv32, 1
  %exitcond35.not = icmp eq i64 %indvars.iv.next33, 4
  br i1 %exitcond35.not, label %46, label %.preheader, !llvm.loop !13

46:                                               ; preds = %45
  ret i32 %41
}